; Function Attrs: nounwind uwtable
define ptr @l_Lean_Elab_Structural_IndGroupInst_isDefEq___lambda__3(ptr noundef readonly captures(none) %0, ptr noundef readonly captures(none) %1, ptr readnone captures(none) %2, ptr noundef %3, ptr noundef %4, ptr noundef %5, ptr noundef %6, ptr noundef %7) local_unnamed_addr #0 {
lean_dec.exit31:
  %8 = getelementptr inbounds nuw i8, ptr %0, i64 24
  %9 = load ptr, ptr %8, align 8, !tbaa !11
  %10 = getelementptr i8, ptr %9, i64 8
  %.val43 = load i64, ptr %10, align 8, !tbaa !13
  %11 = getelementptr inbounds nuw i8, ptr %1, i64 24
  %12 = load ptr, ptr %11, align 8, !tbaa !11
  %13 = getelementptr i8, ptr %12, i64 8
  %.val = load i64, ptr %13, align 8, !tbaa !13
  %.unshifted = xor i64 %.val, %.val43
  %.mask = and i64 %.unshifted, 9223372036854775807
  %.not = icmp eq i64 %.mask, 0
  br i1 %.not, label %57, label %14

14:                                               ; preds = %lean_dec.exit31
  %15 = ptrtoint ptr %6 to i64
  %16 = and i64 %15, 1
  %.not44 = icmp eq i64 %16, 0
  br i1 %.not44, label %17, label %lean_dec.exit30

17:                                               ; preds = %14
  %18 = load i32, ptr %6, align 4, !tbaa !5
  %19 = icmp sgt i32 %18, 1
  br i1 %19, label %20, label %22, !prof !10

20:                                               ; preds = %17
  %21 = add nsw i32 %18, -1
  store i32 %21, ptr %6, align 4, !tbaa !5
  br label %lean_dec.exit30

22:                                               ; preds = %17
  %.not.i35 = icmp eq i32 %18, 0
  br i1 %.not.i35, label %lean_dec.exit30, label %23

23:                                               ; preds = %22
  tail call void @lean_dec_ref_cold(ptr noundef nonnull %6) #4
  br label %lean_dec.exit30

lean_dec.exit30:                                  ; preds = %23, %22, %20, %14
  %24 = ptrtoint ptr %5 to i64
  %25 = and i64 %24, 1
  %.not45 = icmp eq i64 %25, 0
  br i1 %.not45, label %26, label %lean_dec.exit29

26:                                               ; preds = %lean_dec.exit30
  %27 = load i32, ptr %5, align 4, !tbaa !5
  %28 = icmp sgt i32 %27, 1
  br i1 %28, label %29, label %31, !prof !10

29:                                               ; preds = %26
  %30 = add nsw i32 %27, -1
  store i32 %30, ptr %5, align 4, !tbaa !5
  br label %lean_dec.exit29

31:                                               ; preds = %26
  %.not.i37 = icmp eq i32 %27, 0
  br i1 %.not.i37, label %lean_dec.exit29, label %32

32:                                               ; preds = %31
  tail call void @lean_dec_ref_cold(ptr noundef nonnull %5) #4
  br label %lean_dec.exit29

lean_dec.exit29:                                  ; preds = %32, %31, %29, %lean_dec.exit30
  %33 = ptrtoint ptr %4 to i64
  %34 = and i64 %33, 1
  %.not46 = icmp eq i64 %34, 0
  br i1 %.not46, label %35, label %lean_dec.exit28

35:                                               ; preds = %lean_dec.exit29
  %36 = load i32, ptr %4, align 4, !tbaa !5
  %37 = icmp sgt i32 %36, 1
  br i1 %37, label %38, label %40, !prof !10

38:                                               ; preds = %35
  %39 = add nsw i32 %36, -1
  store i32 %39, ptr %4, align 4, !tbaa !5
  br label %lean_dec.exit28

40:                                               ; preds = %35
  %.not.i39 = icmp eq i32 %36, 0
  br i1 %.not.i39, label %lean_dec.exit28, label %41

41:                                               ; preds = %40
  tail call void @lean_dec_ref_cold(ptr noundef nonnull %4) #4
  br label %lean_dec.exit28

lean_dec.exit28:                                  ; preds = %41, %40, %38, %lean_dec.exit29
  %42 = ptrtoint ptr %3 to i64
  %43 = and i64 %42, 1
  %.not47 = icmp eq i64 %43, 0
  br i1 %.not47, label %44, label %lean_dec.exit

44:                                               ; preds = %lean_dec.exit28
  %45 = load i32, ptr %3, align 4, !tbaa !5
  %46 = icmp sgt i32 %45, 1
  br i1 %46, label %47, label %49, !prof !10

47:                                               ; preds = %44
  %48 = add nsw i32 %45, -1
  store i32 %48, ptr %3, align 4, !tbaa !5
  br label %lean_dec.exit

49:                                               ; preds = %44
  %.not.i41 = icmp eq i32 %45, 0
  br i1 %.not.i41, label %lean_dec.exit, label %50

50:                                               ; preds = %49
  tail call void @lean_dec_ref_cold(ptr noundef nonnull %3) #4
  br label %lean_dec.exit

lean_dec.exit:                                    ; preds = %50, %49, %47, %lean_dec.exit28
  tail call void @lean_inc_heartbeat() #4
  %51 = tail call noalias ptr @mi_malloc_small(i64 noundef 24) #4
  %52 = icmp eq ptr %51, null
  br i1 %52, label %53, label %lean_alloc_ctor.exit

53:                                               ; preds = %lean_dec.exit
  tail call void @lean_internal_panic_out_of_memory() #5
  unreachable

lean_alloc_ctor.exit:                             ; preds = %lean_dec.exit
  %54 = getelementptr inbounds nuw i8, ptr %51, i64 4
  store i32 1, ptr %51, align 4, !tbaa !5
  store i32 131096, ptr %54, align 4
  %55 = getelementptr inbounds nuw i8, ptr %51, i64 8
  store ptr inttoptr (i64 1 to ptr), ptr %55, align 8, !tbaa !11
  %56 = getelementptr inbounds nuw i8, ptr %51, i64 16
  store ptr %7, ptr %56, align 8, !tbaa !11
  br label %59

57:                                               ; preds = %lean_dec.exit31
  %58 = tail call ptr @l_Lean_Elab_Structural_IndGroupInst_isDefEq___lambda__2(ptr noundef nonnull %0, ptr noundef nonnull %1, ptr nonnull poison, ptr noundef %3, ptr noundef %4, ptr noundef %5, ptr noundef %6, ptr noundef %7)
  br label %59

59:                                               ; preds = %57, %lean_alloc_ctor.exit
  %.0 = phi ptr [ %51, %lean_alloc_ctor.exit ], [ %58, %57 ]
  ret ptr %.0
}